target datalayout = "e-m:e-p270:32:32-p271:32:32-p272:64:64-i64:64-i128:128-f80:128-n8:16:32:64-S128"
target triple = "x86_64-unknown-linux-gnu"

%"class.boost::detail::shared_count" = type { ptr }
%"class.QuantLib::AbcdMathFunction" = type { double, double, double, double, %"class.std::vector", %"class.std::vector", double, double, double, double, double, double, double }
%"class.std::vector" = type { %"struct.std::_Vector_base" }
%"struct.std::_Vector_base" = type { %"struct.std::_Vector_base<double, std::allocator<double>>::_Vector_impl" }
%"struct.std::_Vector_base<double, std::allocator<double>>::_Vector_impl" = type { %"struct.std::_Vector_base<double, std::allocator<double>>::_Vector_impl_data" }
%"struct.std::_Vector_base<double, std::allocator<double>>::_Vector_impl_data" = type { ptr, ptr, ptr }
%"class.QuantLib::AbcdSquared" = type { %"class.boost::shared_ptr.3", double, double }
%"class.boost::shared_ptr.3" = type { ptr, %"class.boost::detail::shared_count" }

@.str.8 = private unnamed_addr constant [8 x i8] c"px != 0\00", align 1
@__PRETTY_FUNCTION__._ZNK5boost10shared_ptrIN8QuantLib12AbcdFunctionEEptEv = private unnamed_addr constant [141 x i8] c"typename boost::detail::sp_member_access<T>::type boost::shared_ptr<QuantLib::AbcdFunction>::operator->() const [T = QuantLib::AbcdFunction]\00", align 1
@.str.9 = private unnamed_addr constant [102 x i8] c"generated/home/dtcxzyw/WorkSpace/SDK/vcpkg/installed/x64-linux/include/boost/smart_ptr/shared_ptr.hpp\00", align 1

; Function Attrs: inlinehint mustprogress nounwind uwtable
define linkonce_odr noundef double @_ZNK8QuantLib16AbcdMathFunctionclEd(ptr noundef nonnull align 8 dereferenceable(136) %this, double noundef %t) #5 comdat align 2 {
entry:
  %this.addr = alloca ptr, align 8
  %t.addr = alloca double, align 8
  store ptr %this, ptr %this.addr, align 8, !tbaa !3
  store double %t, ptr %t.addr, align 8, !tbaa !7
  %this1 = load ptr, ptr %this.addr, align 8
  %0 = load double, ptr %t.addr, align 8, !tbaa !7
  %cmp = fcmp olt double %0, 0.000000e+00
  br i1 %cmp, label %cond.true, label %cond.false

cond.true:                                        ; preds = %entry
  br label %cond.end

cond.false:                                       ; preds = %entry
  %a_ = getelementptr inbounds nuw %"class.QuantLib::AbcdMathFunction", ptr %this1, i32 0, i32 0
  %1 = load double, ptr %a_, align 8, !tbaa !13
  %b_ = getelementptr inbounds nuw %"class.QuantLib::AbcdMathFunction", ptr %this1, i32 0, i32 1
  %2 = load double, ptr %b_, align 8, !tbaa !19
  %3 = load double, ptr %t.addr, align 8, !tbaa !7
  %4 = call double @llvm.fmuladd.f64(double %2, double %3, double %1)
  %c_ = getelementptr inbounds nuw %"class.QuantLib::AbcdMathFunction", ptr %this1, i32 0, i32 2
  %5 = load double, ptr %c_, align 8, !tbaa !20
  %fneg = fneg double %5
  %6 = load double, ptr %t.addr, align 8, !tbaa !7
  %mul = fmul double %fneg, %6
  %call = call double @exp(double noundef %mul) #16, !tbaa !9
  %d_ = getelementptr inbounds nuw %"class.QuantLib::AbcdMathFunction", ptr %this1, i32 0, i32 3
  %7 = load double, ptr %d_, align 8, !tbaa !21
  %8 = call double @llvm.fmuladd.f64(double %4, double %call, double %7)
  br label %cond.end

cond.end:                                         ; preds = %cond.false, %cond.true
  %cond = phi double [ 0.000000e+00, %cond.true ], [ %8, %cond.false ]
  ret double %cond
}

; Function Attrs: mustprogress uwtable
define noundef double @_ZNK8QuantLib12AbcdFunction10covarianceEddd(ptr noundef nonnull align 8 dereferenceable(136) %this, double noundef %t, double noundef %T, double noundef %S) #0 align 2 {
entry:
  %this.addr = alloca ptr, align 8
  %t.addr = alloca double, align 8
  %T.addr = alloca double, align 8
  %S.addr = alloca double, align 8
  store ptr %this, ptr %this.addr, align 8, !tbaa !3
  store double %t, ptr %t.addr, align 8, !tbaa !7
  store double %T, ptr %T.addr, align 8, !tbaa !7
  store double %S, ptr %S.addr, align 8, !tbaa !7
  %this1 = load ptr, ptr %this.addr, align 8
  %0 = load double, ptr %T.addr, align 8, !tbaa !7
  %1 = load double, ptr %t.addr, align 8, !tbaa !7
  %sub = fsub double %0, %1
  %call = call noundef double @_ZNK8QuantLib16AbcdMathFunctionclEd(ptr noundef nonnull align 8 dereferenceable(136) %this1, double noundef %sub)
  %2 = load double, ptr %S.addr, align 8, !tbaa !7
  %3 = load double, ptr %t.addr, align 8, !tbaa !7
  %sub2 = fsub double %2, %3
  %call3 = call noundef double @_ZNK8QuantLib16AbcdMathFunctionclEd(ptr noundef nonnull align 8 dereferenceable(136) %this1, double noundef %sub2)
  %mul = fmul double %call, %call3
  ret double %mul
}

; Function Attrs: mustprogress uwtable
define linkonce_odr noundef ptr @_ZNK5boost10shared_ptrIN8QuantLib12AbcdFunctionEEptEv(ptr noundef nonnull align 8 dereferenceable(16) %this) #0 comdat align 2 {
entry:
  %this.addr = alloca ptr, align 8
  store ptr %this, ptr %this.addr, align 8, !tbaa !3
  %this1 = load ptr, ptr %this.addr, align 8
  %px = getelementptr inbounds nuw %"class.boost::shared_ptr.3", ptr %this1, i32 0, i32 0
  %0 = load ptr, ptr %px, align 8, !tbaa !27
  %cmp = icmp ne ptr %0, null
  %lnot = xor i1 %cmp, true
  %lnot2 = xor i1 %lnot, true
  %conv = zext i1 %lnot2 to i64
  %expval = call i64 @llvm.expect.i64(i64 %conv, i64 1)
  %tobool = icmp ne i64 %expval, 0
  br i1 %tobool, label %cond.true, label %cond.false

cond.true:                                        ; preds = %entry
  br label %cond.end

cond.false:                                       ; preds = %entry
  call void @_ZN5boost16assertion_failedEPKcS1_S1_l(ptr noundef @.str.8, ptr noundef @__PRETTY_FUNCTION__._ZNK5boost10shared_ptrIN8QuantLib12AbcdFunctionEEptEv, ptr noundef @.str.9, i64 noundef 784)
  br label %cond.end

cond.end:                                         ; preds = %cond.false, %cond.true
  %px3 = getelementptr inbounds nuw %"class.boost::shared_ptr.3", ptr %this1, i32 0, i32 0
  %1 = load ptr, ptr %px3, align 8, !tbaa !27
  ret ptr %1
}

; Function Attrs: mustprogress uwtable
define noundef double @_ZNK8QuantLib11AbcdSquaredclEd(ptr noundef nonnull align 8 dereferenceable(32) %this, double noundef %t) #0 align 2 {
entry:
  %this.addr = alloca ptr, align 8
  %t.addr = alloca double, align 8
  store ptr %this, ptr %this.addr, align 8, !tbaa !3
  store double %t, ptr %t.addr, align 8, !tbaa !7
  %this1 = load ptr, ptr %this.addr, align 8
  %abcd_ = getelementptr inbounds nuw %"class.QuantLib::AbcdSquared", ptr %this1, i32 0, i32 0
  %call = call noundef ptr @_ZNK5boost10shared_ptrIN8QuantLib12AbcdFunctionEEptEv(ptr noundef nonnull align 8 dereferenceable(16) %abcd_)
  %0 = load double, ptr %t.addr, align 8, !tbaa !7
  %T_ = getelementptr inbounds nuw %"class.QuantLib::AbcdSquared", ptr %this1, i32 0, i32 1
  %1 = load double, ptr %T_, align 8, !tbaa !22
  %S_ = getelementptr inbounds nuw %"class.QuantLib::AbcdSquared", ptr %this1, i32 0, i32 2
  %2 = load double, ptr %S_, align 8, !tbaa !26
  %call2 = call noundef double @_ZNK8QuantLib12AbcdFunction10covarianceEddd(ptr noundef nonnull align 8 dereferenceable(136) %call, double noundef %0, double noundef %1, double noundef %2)
  ret double %call2
}