; Function Attrs: mustprogress uwtable
define noundef double @_ZNK8QuantLib11AbcdSquaredclEd(ptr nocapture noundef nonnull readonly align 8 dereferenceable(32) %this, double noundef %t) local_unnamed_addr #0 align 2 {
entry:
  %0 = load ptr, ptr %this, align 8, !tbaa !30
  %cmp.not.i = icmp eq ptr %0, null
  br i1 %cmp.not.i, label %cond.false.i, label %_ZNK5boost10shared_ptrIN8QuantLib12AbcdFunctionEEptEv.exit, !prof !35

cond.false.i:                                     ; preds = %entry
  tail call void @_ZN5boost16assertion_failedEPKcS1_S1_l(ptr noundef nonnull @.str.8, ptr noundef nonnull @__PRETTY_FUNCTION__._ZNK5boost10shared_ptrIN8QuantLib12AbcdFunctionEEptEv, ptr noundef nonnull @.str.9, i64 noundef 784)
  %.pre.i = load ptr, ptr %this, align 8, !tbaa !30
  br label %_ZNK5boost10shared_ptrIN8QuantLib12AbcdFunctionEEptEv.exit

_ZNK5boost10shared_ptrIN8QuantLib12AbcdFunctionEEptEv.exit: ; preds = %entry, %cond.false.i
  %1 = phi ptr [ %0, %entry ], [ %.pre.i, %cond.false.i ]
  %T_ = getelementptr inbounds nuw i8, ptr %this, i64 16
  %2 = load double, ptr %T_, align 8, !tbaa !32
  %S_ = getelementptr inbounds nuw i8, ptr %this, i64 24
  %3 = load double, ptr %S_, align 8, !tbaa !34
  %sub.i = fsub double %2, %t
  %cmp.i.i = fcmp olt double %sub.i, 0.000000e+00
  br i1 %cmp.i.i, label %_ZNK8QuantLib16AbcdMathFunctionclEd.exit.i, label %cond.false.i.i

cond.false.i.i:                                   ; preds = %_ZNK5boost10shared_ptrIN8QuantLib12AbcdFunctionEEptEv.exit
  %4 = load double, ptr %1, align 8, !tbaa !3
  %b_.i.i = getelementptr inbounds nuw i8, ptr %1, i64 8
  %5 = load double, ptr %b_.i.i, align 8, !tbaa !13
  %6 = tail call double @llvm.fmuladd.f64(double %5, double %sub.i, double %4)
  %c_.i.i = getelementptr inbounds nuw i8, ptr %1, i64 16
  %7 = load double, ptr %c_.i.i, align 8, !tbaa !14
  %fneg.i.i = fneg double %7
  %mul.i.i = fmul double %sub.i, %fneg.i.i
  %call.i.i = tail call double @exp(double noundef %mul.i.i) #19, !tbaa !15
  %d_.i.i = getelementptr inbounds nuw i8, ptr %1, i64 24
  %8 = load double, ptr %d_.i.i, align 8, !tbaa !17
  %9 = tail call double @llvm.fmuladd.f64(double %6, double %call.i.i, double %8)
  br label %_ZNK8QuantLib16AbcdMathFunctionclEd.exit.i

_ZNK8QuantLib16AbcdMathFunctionclEd.exit.i:       ; preds = %cond.false.i.i, %_ZNK5boost10shared_ptrIN8QuantLib12AbcdFunctionEEptEv.exit
  %cond.i.i = phi double [ %9, %cond.false.i.i ], [ 0.000000e+00, %_ZNK5boost10shared_ptrIN8QuantLib12AbcdFunctionEEptEv.exit ]
  %sub2.i = fsub double %3, %t
  %cmp.i2.i = fcmp olt double %sub2.i, 0.000000e+00
  br i1 %cmp.i2.i, label %_ZNK8QuantLib12AbcdFunction10covarianceEddd.exit, label %cond.false.i3.i

cond.false.i3.i:                                  ; preds = %_ZNK8QuantLib16AbcdMathFunctionclEd.exit.i
  %10 = load double, ptr %1, align 8, !tbaa !3
  %b_.i4.i = getelementptr inbounds nuw i8, ptr %1, i64 8
  %11 = load double, ptr %b_.i4.i, align 8, !tbaa !13
  %12 = tail call double @llvm.fmuladd.f64(double %11, double %sub2.i, double %10)
  %c_.i5.i = getelementptr inbounds nuw i8, ptr %1, i64 16
  %13 = load double, ptr %c_.i5.i, align 8, !tbaa !14
  %fneg.i6.i = fneg double %13
  %mul.i7.i = fmul double %sub2.i, %fneg.i6.i
  %call.i8.i = tail call double @exp(double noundef %mul.i7.i) #19, !tbaa !15
  %d_.i9.i = getelementptr inbounds nuw i8, ptr %1, i64 24
  %14 = load double, ptr %d_.i9.i, align 8, !tbaa !17
  %15 = tail call double @llvm.fmuladd.f64(double %12, double %call.i8.i, double %14)
  br label %_ZNK8QuantLib12AbcdFunction10covarianceEddd.exit

_ZNK8QuantLib12AbcdFunction10covarianceEddd.exit: ; preds = %_ZNK8QuantLib16AbcdMathFunctionclEd.exit.i, %cond.false.i3.i
  %cond.i10.i = phi double [ %15, %cond.false.i3.i ], [ 0.000000e+00, %_ZNK8QuantLib16AbcdMathFunctionclEd.exit.i ]
  %mul.i = fmul double %cond.i.i, %cond.i10.i
  ret double %mul.i
}